; Function Attrs: nounwind uwtable
define void @dt_bauhaus_widget_set_quad_tooltip(ptr noundef %0, ptr noundef %1) local_unnamed_addr #0 {
  %3 = load atomic i64, ptr @dt_bh_get_type.static_g_define_type_id seq_cst, align 8
  %.not.i.i = icmp eq i64 %3, 0
  br i1 %.not.i.i, label %4, label %DT_BAUHAUS_WIDGET.exit

4:                                                ; preds = %2
  %5 = tail call i32 @g_once_init_enter(ptr noundef nonnull @dt_bh_get_type.static_g_define_type_id) #19
  %.not4.i.i = icmp eq i32 %5, 0
  br i1 %.not4.i.i, label %DT_BAUHAUS_WIDGET.exit, label %6

6:                                                ; preds = %4
  %7 = tail call fastcc i64 @dt_bh_get_type_once()
  tail call void @g_once_init_leave(ptr noundef nonnull @dt_bh_get_type.static_g_define_type_id, i64 noundef %7) #19
  br label %DT_BAUHAUS_WIDGET.exit

DT_BAUHAUS_WIDGET.exit:                           ; preds = %2, %4, %6
  %8 = load i64, ptr @dt_bh_get_type.static_g_define_type_id, align 8, !tbaa !6
  %9 = tail call ptr @g_type_check_instance_cast(ptr noundef %0, i64 noundef %8) #19
  %.not = icmp eq ptr %9, null
  br i1 %.not, label %14, label %10

10:                                               ; preds = %DT_BAUHAUS_WIDGET.exit
  %11 = getelementptr inbounds nuw i8, ptr %9, i64 352
  %12 = load ptr, ptr %11, align 8, !tbaa !199
  tail call void @g_free(ptr noundef %12) #19
  %13 = tail call noalias ptr @g_strdup(ptr noundef %1) #19
  store ptr %13, ptr %11, align 8, !tbaa !199
  br label %14

14:                                               ; preds = %DT_BAUHAUS_WIDGET.exit, %10
  ret void
}